target datalayout = "e-m:e-p270:32:32-p271:32:32-p272:64:64-i64:64-i128:128-f80:128-n8:16:32:64-S128"
target triple = "x86_64-pc-linux-gnu"

%"class.icu_77::NFRule" = type { i64, i32, i16, i16, %"class.icu_77::UnicodeString", ptr, ptr, ptr, ptr }
%"class.icu_77::UnicodeString" = type { %"class.icu_77::Replaceable", %"union.icu_77::UnicodeString::StackBufferOrFields" }
%"class.icu_77::Replaceable" = type { %"class.icu_77::UObject" }
%"class.icu_77::UObject" = type { ptr }
%"union.icu_77::UnicodeString::StackBufferOrFields" = type { %struct.anon.0, [32 x i8] }
%struct.anon.0 = type { i16, i32, i32, ptr }

; Function Attrs: inlinehint mustprogress nounwind uwtable
define linkonce_odr noundef i32 @_ZNK6icu_7713UnicodeString14getShortLengthEv(ptr noundef nonnull align 8 dereferenceable(64) %0) #2 comdat align 2 {
  %2 = alloca ptr, align 8
  store ptr %0, ptr %2, align 8, !tbaa !10
  %3 = load ptr, ptr %2, align 8
  %4 = getelementptr inbounds nuw %"class.icu_77::UnicodeString", ptr %3, i32 0, i32 1
  %5 = getelementptr inbounds nuw %struct.anon.0, ptr %4, i32 0, i32 0
  %6 = load i16, ptr %5, align 8, !tbaa !31
  %7 = sext i16 %6 to i32
  %8 = ashr i32 %7, 5
  ret i32 %8
}

; Function Attrs: inlinehint mustprogress nounwind uwtable
define linkonce_odr noundef signext i8 @_ZNK6icu_7713UnicodeString14hasShortLengthEv(ptr noundef nonnull align 8 dereferenceable(64) %0) #2 comdat align 2 {
  %2 = alloca ptr, align 8
  store ptr %0, ptr %2, align 8, !tbaa !10
  %3 = load ptr, ptr %2, align 8
  %4 = getelementptr inbounds nuw %"class.icu_77::UnicodeString", ptr %3, i32 0, i32 1
  %5 = getelementptr inbounds nuw %struct.anon.0, ptr %4, i32 0, i32 0
  %6 = load i16, ptr %5, align 8, !tbaa !31
  %7 = sext i16 %6 to i32
  %8 = icmp sge i32 %7, 0
  %9 = zext i1 %8 to i8
  ret i8 %9
}

; Function Attrs: inlinehint mustprogress uwtable
define linkonce_odr noundef i32 @_ZNK6icu_7713UnicodeString6lengthEv(ptr noundef nonnull align 8 dereferenceable(64) %0) #6 comdat align 2 {
  %2 = alloca ptr, align 8
  store ptr %0, ptr %2, align 8, !tbaa !10
  %3 = load ptr, ptr %2, align 8
  %4 = call noundef signext i8 @_ZNK6icu_7713UnicodeString14hasShortLengthEv(ptr noundef nonnull align 8 dereferenceable(64) %3)
  %5 = icmp ne i8 %4, 0
  br i1 %5, label %6, label %8

6:                                                ; preds = %1
  %7 = call noundef i32 @_ZNK6icu_7713UnicodeString14getShortLengthEv(ptr noundef nonnull align 8 dereferenceable(64) %3)
  br label %12

8:                                                ; preds = %1
  %9 = getelementptr inbounds nuw %"class.icu_77::UnicodeString", ptr %3, i32 0, i32 1
  %10 = getelementptr inbounds nuw %struct.anon.0, ptr %9, i32 0, i32 1
  %11 = load i32, ptr %10, align 4, !tbaa !31
  br label %12

12:                                               ; preds = %8, %6
  %13 = phi i32 [ %7, %6 ], [ %11, %8 ]
  ret i32 %13
}

; Function Attrs: inlinehint mustprogress uwtable
define linkonce_odr noundef i32 @_ZNK6icu_7713UnicodeString7indexOfEDs(ptr noundef nonnull align 8 dereferenceable(64) %0, i16 noundef zeroext %1) #6 comdat align 2 {
  %3 = alloca ptr, align 8
  %4 = alloca i16, align 2
  store ptr %0, ptr %3, align 8, !tbaa !10
  store i16 %1, ptr %4, align 2, !tbaa !35
  %5 = load ptr, ptr %3, align 8
  %6 = load i16, ptr %4, align 2, !tbaa !35
  %7 = call noundef i32 @_ZNK6icu_7713UnicodeString6lengthEv(ptr noundef nonnull align 8 dereferenceable(64) %5)
  %8 = call noundef i32 @_ZNK6icu_7713UnicodeString9doIndexOfEDsii(ptr noundef nonnull align 8 dereferenceable(64) %5, i16 noundef zeroext %6, i32 noundef 0, i32 noundef %7)
  ret i32 %8
}

; Function Attrs: mustprogress uwtable
define noundef i32 @_ZNK6icu_776NFRule20indexOfAnyRulePrefixEv(ptr noundef nonnull align 8 dereferenceable(112) %0) #0 align 2 {
  %2 = alloca ptr, align 8
  %3 = alloca i32, align 4
  %4 = alloca i32, align 4
  %5 = alloca i32, align 4
  store ptr %0, ptr %2, align 8, !tbaa !3
  %6 = load ptr, ptr %2, align 8
  call void @llvm.lifetime.start.p0(i64 4, ptr %3) #9
  store i32 -1, ptr %3, align 4, !tbaa !32
  call void @llvm.lifetime.start.p0(i64 4, ptr %4) #9
  store i32 0, ptr %4, align 4, !tbaa !32
  br label %7

7:                                                ; preds = %34, %1
  %8 = load i32, ptr %4, align 4, !tbaa !32
  %9 = sext i32 %8 to i64
  %10 = getelementptr inbounds [12 x ptr], ptr @_ZN6icu_77L13RULE_PREFIXESE, i64 0, i64 %9
  %11 = load ptr, ptr %10, align 8, !tbaa !69
  %12 = icmp ne ptr %11, null
  br i1 %12, label %14, label %13

13:                                               ; preds = %7
  call void @llvm.lifetime.end.p0(i64 4, ptr %4) #9
  br label %37

14:                                               ; preds = %7
  call void @llvm.lifetime.start.p0(i64 4, ptr %5) #9
  %15 = getelementptr inbounds nuw %"class.icu_77::NFRule", ptr %6, i32 0, i32 4
  %16 = load i32, ptr %4, align 4, !tbaa !32
  %17 = sext i32 %16 to i64
  %18 = getelementptr inbounds [12 x ptr], ptr @_ZN6icu_77L13RULE_PREFIXESE, i64 0, i64 %17
  %19 = load ptr, ptr %18, align 8, !tbaa !69
  %20 = load i16, ptr %19, align 2, !tbaa !35
  %21 = call noundef i32 @_ZNK6icu_7713UnicodeString7indexOfEDs(ptr noundef nonnull align 8 dereferenceable(64) %15, i16 noundef zeroext %20)
  store i32 %21, ptr %5, align 4, !tbaa !32
  %22 = load i32, ptr %5, align 4, !tbaa !32
  %23 = icmp ne i32 %22, -1
  br i1 %23, label %24, label %33

24:                                               ; preds = %14
  %25 = load i32, ptr %3, align 4, !tbaa !32
  %26 = icmp eq i32 %25, -1
  br i1 %26, label %31, label %27

27:                                               ; preds = %24
  %28 = load i32, ptr %5, align 4, !tbaa !32
  %29 = load i32, ptr %3, align 4, !tbaa !32
  %30 = icmp slt i32 %28, %29
  br i1 %30, label %31, label %33

31:                                               ; preds = %27, %24
  %32 = load i32, ptr %5, align 4, !tbaa !32
  store i32 %32, ptr %3, align 4, !tbaa !32
  br label %33

33:                                               ; preds = %31, %27, %14
  call void @llvm.lifetime.end.p0(i64 4, ptr %5) #9
  br label %34

34:                                               ; preds = %33
  %35 = load i32, ptr %4, align 4, !tbaa !32
  %36 = add nsw i32 %35, 1
  store i32 %36, ptr %4, align 4, !tbaa !32
  br label %7, !llvm.loop !75

37:                                               ; preds = %13
  %38 = load i32, ptr %3, align 4, !tbaa !32
  call void @llvm.lifetime.end.p0(i64 4, ptr %3) #9
  ret i32 %38
}