; Function Attrs: mustprogress uwtable
define noundef i32 @_ZNK6icu_776NFRule20indexOfAnyRulePrefixEv(ptr noundef nonnull align 8 dereferenceable(112) %0) local_unnamed_addr #0 align 2 {
  %2 = getelementptr inbounds nuw i8, ptr %0, i64 16
  %3 = getelementptr inbounds nuw i8, ptr %0, i64 24
  %4 = getelementptr inbounds nuw i8, ptr %0, i64 28
  br label %6

5:                                                ; preds = %6
  ret i32 %.1

6:                                                ; preds = %1, %6
  %indvars.iv = phi i64 [ 0, %1 ], [ %indvars.iv.next, %6 ]
  %.014 = phi i32 [ -1, %1 ], [ %.1, %6 ]
  %7 = getelementptr inbounds nuw [12 x ptr], ptr @_ZN6icu_77L13RULE_PREFIXESE, i64 0, i64 %indvars.iv
  %8 = load ptr, ptr %7, align 8, !tbaa !50
  %9 = load i16, ptr %8, align 2, !tbaa !26
  %10 = load i16, ptr %3, align 8, !tbaa !23
  %11 = icmp slt i16 %10, 0
  %12 = ashr i16 %10, 5
  %13 = sext i16 %12 to i32
  %14 = load i32, ptr %4, align 4
  %15 = select i1 %11, i32 %14, i32 %13
  %16 = tail call noundef i32 @_ZNK6icu_7713UnicodeString9doIndexOfEDsii(ptr noundef nonnull align 8 dereferenceable(64) %2, i16 noundef zeroext %9, i32 noundef 0, i32 noundef %15)
  %.not12 = icmp eq i32 %16, -1
  %17 = icmp eq i32 %.014, -1
  %18 = tail call i32 @llvm.smin.i32(i32 %16, i32 %.014)
  %spec.select = select i1 %17, i32 %16, i32 %18
  %.1 = select i1 %.not12, i32 %.014, i32 %spec.select
  %indvars.iv.next = add nuw nsw i64 %indvars.iv, 1
  %.not = icmp eq i64 %indvars.iv.next, 11
  br i1 %.not, label %5, label %6, !llvm.loop !51
}